; ModuleID = '38/1642.c'
source_filename = "38/1642.c"
target datalayout = "e-m:e-p270:32:32-p271:32:32-p272:64:64-i64:64-f80:128-n8:16:32:64-S128"
target triple = "x86_64-pc-linux-gnu"

@.str = private unnamed_addr constant [3 x i8] c"%d\00", align 1
@.str.1 = private unnamed_addr constant [3 x i8] c"%f\00", align 1
@.str.2 = private unnamed_addr constant [6 x i8] c"%.5f\0A\00", align 1

; Function Attrs: noinline nounwind uwtable
define dso_local i32 @main(i32 %0, i8** %1) #0 {
  %3 = alloca i32, align 4
  %4 = alloca i32, align 4
  %5 = alloca i8**, align 8
  %6 = alloca i32, align 4
  %7 = alloca i32, align 4
  %8 = alloca i32, align 4
  %9 = alloca i32, align 4
  %10 = alloca [100 x float], align 16
  %11 = alloca double, align 8
  %12 = alloca double, align 8
  store i32 0, i32* %3, align 4
  store i32 %0, i32* %4, align 4
  store i8** %1, i8*** %5, align 8
  %13 = call i32 (i8*, ...) @__isoc99_scanf(i8* getelementptr inbounds ([3 x i8], [3 x i8]* @.str, i64 0, i64 0), i32* %6)
  store i32 0, i32* %7, align 4
  br label %14

14:                                               ; preds = %78, %2
  %15 = load i32, i32* %7, align 4
  %16 = load i32, i32* %6, align 4
  %17 = icmp slt i32 %15, %16
  br i1 %17, label %18, label %81

18:                                               ; preds = %14
  %19 = call i32 (i8*, ...) @__isoc99_scanf(i8* getelementptr inbounds ([3 x i8], [3 x i8]* @.str, i64 0, i64 0), i32* %8)
  store double 0.000000e+00, double* %11, align 8
  store i32 0, i32* %9, align 4
  br label %20

20:                                               ; preds = %36, %18
  %21 = load i32, i32* %9, align 4
  %22 = load i32, i32* %8, align 4
  %23 = icmp slt i32 %21, %22
  br i1 %23, label %24, label %39

24:                                               ; preds = %20
  %25 = load i32, i32* %9, align 4
  %26 = sext i32 %25 to i64
  %27 = getelementptr inbounds [100 x float], [100 x float]* %10, i64 0, i64 %26
  %28 = call i32 (i8*, ...) @__isoc99_scanf(i8* getelementptr inbounds ([3 x i8], [3 x i8]* @.str.1, i64 0, i64 0), float* %27)
  %29 = load i32, i32* %9, align 4
  %30 = sext i32 %29 to i64
  %31 = getelementptr inbounds [100 x float], [100 x float]* %10, i64 0, i64 %30
  %32 = load float, float* %31, align 4
  %33 = fpext float %32 to double
  %34 = load double, double* %11, align 8
  %35 = fadd double %34, %33
  store double %35, double* %11, align 8
  br label %36

36:                                               ; preds = %24
  %37 = load i32, i32* %9, align 4
  %38 = add nsw i32 %37, 1
  store i32 %38, i32* %9, align 4
  br label %20

39:                                               ; preds = %20
  %40 = load double, double* %11, align 8
  %41 = load i32, i32* %8, align 4
  %42 = sitofp i32 %41 to double
  %43 = fdiv double %40, %42
  store double %43, double* %11, align 8
  store double 0.000000e+00, double* %12, align 8
  store i32 0, i32* %9, align 4
  br label %44

44:                                               ; preds = %66, %39
  %45 = load i32, i32* %9, align 4
  %46 = load i32, i32* %8, align 4
  %47 = icmp slt i32 %45, %46
  br i1 %47, label %48, label %69

48:                                               ; preds = %44
  %49 = load i32, i32* %9, align 4
  %50 = sext i32 %49 to i64
  %51 = getelementptr inbounds [100 x float], [100 x float]* %10, i64 0, i64 %50
  %52 = load float, float* %51, align 4
  %53 = fpext float %52 to double
  %54 = load double, double* %11, align 8
  %55 = fsub double %53, %54
  %56 = load i32, i32* %9, align 4
  %57 = sext i32 %56 to i64
  %58 = getelementptr inbounds [100 x float], [100 x float]* %10, i64 0, i64 %57
  %59 = load float, float* %58, align 4
  %60 = fpext float %59 to double
  %61 = load double, double* %11, align 8
  %62 = fsub double %60, %61
  %63 = fmul double %55, %62
  %64 = load double, double* %12, align 8
  %65 = fadd double %64, %63
  store double %65, double* %12, align 8
  br label %66

66:                                               ; preds = %48
  %67 = load i32, i32* %9, align 4
  %68 = add nsw i32 %67, 1
  store i32 %68, i32* %9, align 4
  br label %44

69:                                               ; preds = %44
  %70 = load double, double* %12, align 8
  %71 = load i32, i32* %8, align 4
  %72 = sitofp i32 %71 to double
  %73 = fdiv double %70, %72
  store double %73, double* %12, align 8
  %74 = load double, double* %12, align 8
  %75 = call double @sqrt(double %74) #3
  store double %75, double* %12, align 8
  %76 = load double, double* %12, align 8
  %77 = call i32 (i8*, ...) @printf(i8* getelementptr inbounds ([6 x i8], [6 x i8]* @.str.2, i64 0, i64 0), double %76)
  br label %78

78:                                               ; preds = %69
  %79 = load i32, i32* %7, align 4
  %80 = add nsw i32 %79, 1
  store i32 %80, i32* %7, align 4
  br label %14

81:                                               ; preds = %14
  ret i32 0
}

declare dso_local i32 @__isoc99_scanf(i8*, ...) #1

; Function Attrs: nounwind
declare dso_local double @sqrt(double) #2

declare dso_local i32 @printf(i8*, ...) #1


!llvm.module.flags = !{!0}
!llvm.ident = !{!1}

!0 = !{i32 1, !"wchar_size", i32 4}
!1 = !{!"clang version 10.0.0-4ubuntu1 "}
