; ModuleID = 'source-C-CXX/37/1642.c'
source_filename = "source-C-CXX/37/1642.c"
target datalayout = "e-m:e-p270:32:32-p271:32:32-p272:64:64-i64:64-f80:128-n8:16:32:64-S128"
target triple = "x86_64-pc-linux-gnu"

@.str = private unnamed_addr constant [3 x i8] c"%d\00", align 1
@.str.1 = private unnamed_addr constant [3 x i8] c"%f\00", align 1
@.str.2 = private unnamed_addr constant [6 x i8] c"%.5f\0A\00", align 1

; Function Attrs: nofree nounwind sspstrong uwtable
define dso_local i32 @main(i32 %0, i8** nocapture readnone %1) local_unnamed_addr #0 {
  %3 = alloca i32, align 4
  %4 = alloca i32, align 4
  %5 = alloca [100 x float], align 16
  %6 = bitcast i32* %3 to i8*
  call void @llvm.lifetime.start.p0i8(i64 4, i8* nonnull %6) #4
  %7 = bitcast i32* %4 to i8*
  call void @llvm.lifetime.start.p0i8(i64 4, i8* nonnull %7) #4
  %8 = call i32 (i8*, ...) @__isoc99_scanf(i8* getelementptr inbounds ([3 x i8], [3 x i8]* @.str, i64 0, i64 0), i32* nonnull %3)
  %9 = bitcast [100 x float]* %5 to i8*
  %10 = load i32, i32* %3, align 4, !tbaa !5
  %11 = icmp sgt i32 %10, 0
  br i1 %11, label %12, label %103

12:                                               ; preds = %2, %94
  %13 = phi i32 [ %100, %94 ], [ 0, %2 ]
  %14 = call i32 (i8*, ...) @__isoc99_scanf(i8* getelementptr inbounds ([3 x i8], [3 x i8]* @.str, i64 0, i64 0), i32* nonnull %4)
  call void @llvm.lifetime.start.p0i8(i64 400, i8* nonnull %9) #4
  %15 = load i32, i32* %4, align 4, !tbaa !5
  %16 = icmp sgt i32 %15, 0
  br i1 %16, label %19, label %17

17:                                               ; preds = %12
  %18 = sitofp i32 %15 to double
  br label %94

19:                                               ; preds = %12, %19
  %20 = phi i64 [ %27, %19 ], [ 0, %12 ]
  %21 = phi double [ %26, %19 ], [ 0.000000e+00, %12 ]
  %22 = getelementptr inbounds [100 x float], [100 x float]* %5, i64 0, i64 %20
  %23 = call i32 (i8*, ...) @__isoc99_scanf(i8* getelementptr inbounds ([3 x i8], [3 x i8]* @.str.1, i64 0, i64 0), float* nonnull %22)
  %24 = load float, float* %22, align 4, !tbaa !9
  %25 = fpext float %24 to double
  %26 = fadd double %21, %25
  %27 = add nuw nsw i64 %20, 1
  %28 = load i32, i32* %4, align 4, !tbaa !5
  %29 = sext i32 %28 to i64
  %30 = icmp slt i64 %27, %29
  br i1 %30, label %19, label %31, !llvm.loop !11

31:                                               ; preds = %19
  %32 = sitofp i32 %28 to double
  %33 = fdiv double %26, %32
  %34 = icmp sgt i32 %28, 0
  br i1 %34, label %35, label %94

35:                                               ; preds = %31
  %36 = zext i32 %28 to i64
  %37 = add nsw i64 %36, -1
  %38 = and i64 %36, 3
  %39 = icmp ult i64 %37, 3
  br i1 %39, label %76, label %40

40:                                               ; preds = %35
  %41 = and i64 %36, 4294967292
  br label %42

42:                                               ; preds = %42, %40
  %43 = phi i64 [ 0, %40 ], [ %73, %42 ]
  %44 = phi double [ 0.000000e+00, %40 ], [ %72, %42 ]
  %45 = phi i64 [ %41, %40 ], [ %74, %42 ]
  %46 = getelementptr inbounds [100 x float], [100 x float]* %5, i64 0, i64 %43
  %47 = load float, float* %46, align 16, !tbaa !9
  %48 = fpext float %47 to double
  %49 = fsub double %48, %33
  %50 = fmul double %49, %49
  %51 = fadd double %44, %50
  %52 = or i64 %43, 1
  %53 = getelementptr inbounds [100 x float], [100 x float]* %5, i64 0, i64 %52
  %54 = load float, float* %53, align 4, !tbaa !9
  %55 = fpext float %54 to double
  %56 = fsub double %55, %33
  %57 = fmul double %56, %56
  %58 = fadd double %51, %57
  %59 = or i64 %43, 2
  %60 = getelementptr inbounds [100 x float], [100 x float]* %5, i64 0, i64 %59
  %61 = load float, float* %60, align 8, !tbaa !9
  %62 = fpext float %61 to double
  %63 = fsub double %62, %33
  %64 = fmul double %63, %63
  %65 = fadd double %58, %64
  %66 = or i64 %43, 3
  %67 = getelementptr inbounds [100 x float], [100 x float]* %5, i64 0, i64 %66
  %68 = load float, float* %67, align 4, !tbaa !9
  %69 = fpext float %68 to double
  %70 = fsub double %69, %33
  %71 = fmul double %70, %70
  %72 = fadd double %65, %71
  %73 = add nuw nsw i64 %43, 4
  %74 = add i64 %45, -4
  %75 = icmp eq i64 %74, 0
  br i1 %75, label %76, label %42, !llvm.loop !13

76:                                               ; preds = %42, %35
  %77 = phi double [ undef, %35 ], [ %72, %42 ]
  %78 = phi i64 [ 0, %35 ], [ %73, %42 ]
  %79 = phi double [ 0.000000e+00, %35 ], [ %72, %42 ]
  %80 = icmp eq i64 %38, 0
  br i1 %80, label %94, label %81

81:                                               ; preds = %76, %81
  %82 = phi i64 [ %91, %81 ], [ %78, %76 ]
  %83 = phi double [ %90, %81 ], [ %79, %76 ]
  %84 = phi i64 [ %92, %81 ], [ %38, %76 ]
  %85 = getelementptr inbounds [100 x float], [100 x float]* %5, i64 0, i64 %82
  %86 = load float, float* %85, align 4, !tbaa !9
  %87 = fpext float %86 to double
  %88 = fsub double %87, %33
  %89 = fmul double %88, %88
  %90 = fadd double %83, %89
  %91 = add nuw nsw i64 %82, 1
  %92 = add i64 %84, -1
  %93 = icmp eq i64 %92, 0
  br i1 %93, label %94, label %81, !llvm.loop !14

94:                                               ; preds = %76, %81, %17, %31
  %95 = phi double [ %32, %31 ], [ %18, %17 ], [ %32, %81 ], [ %32, %76 ]
  %96 = phi double [ 0.000000e+00, %31 ], [ 0.000000e+00, %17 ], [ %77, %76 ], [ %90, %81 ]
  %97 = fdiv double %96, %95
  %98 = call double @sqrt(double %97) #4
  %99 = call i32 (i8*, ...) @printf(i8* nonnull dereferenceable(1) getelementptr inbounds ([6 x i8], [6 x i8]* @.str.2, i64 0, i64 0), double %98)
  call void @llvm.lifetime.end.p0i8(i64 400, i8* nonnull %9) #4
  %100 = add nuw nsw i32 %13, 1
  %101 = load i32, i32* %3, align 4, !tbaa !5
  %102 = icmp slt i32 %100, %101
  br i1 %102, label %12, label %103, !llvm.loop !16

103:                                              ; preds = %94, %2
  call void @llvm.lifetime.end.p0i8(i64 4, i8* nonnull %7) #4
  call void @llvm.lifetime.end.p0i8(i64 4, i8* nonnull %6) #4
  ret i32 0
}

; Function Attrs: argmemonly mustprogress nofree nosync nounwind willreturn
declare void @llvm.lifetime.start.p0i8(i64 immarg, i8* nocapture) #1

; Function Attrs: nofree nounwind
declare noundef i32 @__isoc99_scanf(i8* nocapture noundef readonly, ...) local_unnamed_addr #2

; Function Attrs: mustprogress nofree nounwind willreturn
declare double @sqrt(double) local_unnamed_addr #3

; Function Attrs: nofree nounwind
declare noundef i32 @printf(i8* nocapture noundef readonly, ...) local_unnamed_addr #2

; Function Attrs: argmemonly mustprogress nofree nosync nounwind willreturn
declare void @llvm.lifetime.end.p0i8(i64 immarg, i8* nocapture) #1


!llvm.module.flags = !{!0, !1, !2, !3}
!llvm.ident = !{!4}

!0 = !{i32 1, !"wchar_size", i32 4}
!1 = !{i32 7, !"PIC Level", i32 2}
!2 = !{i32 7, !"PIE Level", i32 2}
!3 = !{i32 7, !"uwtable", i32 1}
!4 = !{!"clang version 13.0.0"}
!5 = !{!6, !6, i64 0}
!6 = !{!"int", !7, i64 0}
!7 = !{!"omnipotent char", !8, i64 0}
!8 = !{!"Simple C/C++ TBAA"}
!9 = !{!10, !10, i64 0}
!10 = !{!"float", !7, i64 0}
!11 = distinct !{!11, !12}
!12 = !{!"llvm.loop.mustprogress"}
!13 = distinct !{!13, !12}
!14 = distinct !{!14, !15}
!15 = !{!"llvm.loop.unroll.disable"}
!16 = distinct !{!16, !12}
